; Function Attrs: nounwind uwtable
define internal void @fence_timeout(i32 %0, i16 signext %1, ptr noundef %2) #0 {
  %4 = load i32, ptr getelementptr inbounds nuw (i8, ptr @pmix_server_globals, i64 2676), align 4, !tbaa !64
  %or.cond = icmp ult i32 %4, 64
  br i1 %or.cond, label %5, label %11

5:                                                ; preds = %3
  %6 = zext nneg i32 %4 to i64
  %7 = getelementptr inbounds nuw [0 x %struct.pmix_output_desc_t], ptr @pmix_output_info, i64 0, i64 %6, i32 2
  %8 = load i32, ptr %7, align 4, !tbaa !21
  %9 = icmp sgt i32 %8, 1
  br i1 %9, label %10, label %11

10:                                               ; preds = %5
  tail call void (i32, ptr, ...) @pmix_output(i32 noundef %4, ptr noundef nonnull @.str.88) #19
  br label %11

11:                                               ; preds = %10, %5, %3
  %12 = getelementptr inbounds nuw i8, ptr %2, i64 1656
  %13 = load ptr, ptr %12, align 8, !tbaa !185
  %.not = icmp eq ptr %13, null
  br i1 %.not, label %15, label %14

14:                                               ; preds = %11
  tail call void %13(i32 noundef -24, ptr noundef null, i64 noundef 0, ptr noundef nonnull %2, ptr noundef null, ptr noundef null) #19
  br label %40

15:                                               ; preds = %11
  %16 = getelementptr inbounds nuw i8, ptr %2, i64 272
  store i8 0, ptr %16, align 8, !tbaa !188
  %17 = tail call i32 @pthread_mutex_lock(ptr noundef nonnull %2) #19
  %18 = icmp eq i32 %17, 35
  br i1 %18, label %19, label %pmix_obj_update.exit

19:                                               ; preds = %15
  %20 = tail call ptr @__errno_location() #22
  store i32 35, ptr %20, align 4, !tbaa !23
  tail call void @perror(ptr noundef nonnull @.str.86) #23
  tail call void @abort() #24
  unreachable

pmix_obj_update.exit:                             ; preds = %15
  %21 = getelementptr inbounds nuw i8, ptr %2, i64 48
  %22 = load i32, ptr %21, align 8, !tbaa !78
  %23 = add nsw i32 %22, -1
  store i32 %23, ptr %21, align 8, !tbaa !78
  %24 = tail call i32 @pthread_mutex_unlock(ptr noundef nonnull %2) #19
  %25 = icmp eq i32 %23, 0
  br i1 %25, label %26, label %40

26:                                               ; preds = %pmix_obj_update.exit
  %27 = getelementptr inbounds nuw i8, ptr %2, i64 40
  %28 = load ptr, ptr %27, align 8, !tbaa !77
  %29 = getelementptr inbounds nuw i8, ptr %28, i64 48
  %30 = load ptr, ptr %29, align 8, !tbaa !88
  %31 = load ptr, ptr %30, align 8, !tbaa !80
  %.not6.i = icmp eq ptr %31, null
  br i1 %.not6.i, label %pmix_obj_run_destructors.exit, label %.lr.ph.i

.lr.ph.i:                                         ; preds = %26, %.lr.ph.i
  %32 = phi ptr [ %34, %.lr.ph.i ], [ %31, %26 ]
  %.07.i = phi ptr [ %33, %.lr.ph.i ], [ %30, %26 ]
  tail call void %32(ptr noundef nonnull %2) #19
  %33 = getelementptr inbounds nuw i8, ptr %.07.i, i64 8
  %34 = load ptr, ptr %33, align 8, !tbaa !80
  %.not.i = icmp eq ptr %34, null
  br i1 %.not.i, label %pmix_obj_run_destructors.exit, label %.lr.ph.i, !llvm.loop !89

pmix_obj_run_destructors.exit:                    ; preds = %.lr.ph.i, %26
  %35 = getelementptr inbounds nuw i8, ptr %2, i64 96
  %36 = load ptr, ptr %35, align 8, !tbaa !90
  %.not14 = icmp eq ptr %36, null
  br i1 %.not14, label %39, label %37

37:                                               ; preds = %pmix_obj_run_destructors.exit
  %38 = getelementptr inbounds nuw i8, ptr %2, i64 56
  tail call void %36(ptr noundef nonnull %38, ptr noundef nonnull %2) #19
  br label %40

39:                                               ; preds = %pmix_obj_run_destructors.exit
  tail call void @free(ptr noundef nonnull %2) #19
  br label %40

40:                                               ; preds = %pmix_obj_update.exit, %39, %37, %14
  ret void
}